; ModuleID = '57/137.c'
source_filename = "57/137.c"
target datalayout = "e-m:e-p270:32:32-p271:32:32-p272:64:64-i64:64-f80:128-n8:16:32:64-S128"
target triple = "x86_64-pc-linux-gnu"

@.str = private unnamed_addr constant [3 x i8] c"%d\00", align 1
@.str.1 = private unnamed_addr constant [3 x i8] c"%s\00", align 1
@.str.2 = private unnamed_addr constant [3 x i8] c"er\00", align 1
@.str.3 = private unnamed_addr constant [3 x i8] c"%c\00", align 1
@.str.4 = private unnamed_addr constant [3 x i8] c"ly\00", align 1
@.str.5 = private unnamed_addr constant [2 x i8] c"\0A\00", align 1

; Function Attrs: noinline nounwind uwtable
define dso_local void @main() #0 {
  %1 = alloca i32, align 4
  %2 = alloca i32, align 4
  %3 = alloca i32, align 4
  %4 = alloca i32, align 4
  %5 = alloca [50 x [50 x i8]], align 16
  %6 = alloca [50 x [50 x i8]], align 16
  %7 = call i32 (i8*, ...) @__isoc99_scanf(i8* getelementptr inbounds ([3 x i8], [3 x i8]* @.str, i64 0, i64 0), i32* %1)
  store i32 0, i32* %2, align 4
  br label %8

8:                                                ; preds = %123, %0
  %9 = load i32, i32* %2, align 4
  %10 = load i32, i32* %1, align 4
  %11 = icmp slt i32 %9, %10
  br i1 %11, label %12, label %126

12:                                               ; preds = %8
  %13 = load i32, i32* %2, align 4
  %14 = sext i32 %13 to i64
  %15 = getelementptr inbounds [50 x [50 x i8]], [50 x [50 x i8]]* %5, i64 0, i64 %14
  %16 = call i32 (i8*, ...) @__isoc99_scanf(i8* getelementptr inbounds ([3 x i8], [3 x i8]* @.str.1, i64 0, i64 0), [50 x i8]* %15)
  %17 = load i32, i32* %2, align 4
  %18 = sext i32 %17 to i64
  %19 = getelementptr inbounds [50 x [50 x i8]], [50 x [50 x i8]]* %5, i64 0, i64 %18
  %20 = getelementptr inbounds [50 x i8], [50 x i8]* %19, i64 0, i64 0
  %21 = call i64 @strlen(i8* %20) #3
  %22 = trunc i64 %21 to i32
  store i32 %22, i32* %4, align 4
  %23 = load i32, i32* %2, align 4
  %24 = sext i32 %23 to i64
  %25 = getelementptr inbounds [50 x [50 x i8]], [50 x [50 x i8]]* %5, i64 0, i64 %24
  %26 = load i32, i32* %4, align 4
  %27 = sub nsw i32 %26, 2
  %28 = sext i32 %27 to i64
  %29 = getelementptr inbounds [50 x i8], [50 x i8]* %25, i64 0, i64 %28
  %30 = load i8, i8* %29, align 1
  %31 = load i32, i32* %2, align 4
  %32 = sext i32 %31 to i64
  %33 = getelementptr inbounds [50 x [50 x i8]], [50 x [50 x i8]]* %6, i64 0, i64 %32
  %34 = getelementptr inbounds [50 x i8], [50 x i8]* %33, i64 0, i64 0
  store i8 %30, i8* %34, align 2
  %35 = load i32, i32* %2, align 4
  %36 = sext i32 %35 to i64
  %37 = getelementptr inbounds [50 x [50 x i8]], [50 x [50 x i8]]* %5, i64 0, i64 %36
  %38 = load i32, i32* %4, align 4
  %39 = sub nsw i32 %38, 1
  %40 = sext i32 %39 to i64
  %41 = getelementptr inbounds [50 x i8], [50 x i8]* %37, i64 0, i64 %40
  %42 = load i8, i8* %41, align 1
  %43 = load i32, i32* %2, align 4
  %44 = sext i32 %43 to i64
  %45 = getelementptr inbounds [50 x [50 x i8]], [50 x [50 x i8]]* %6, i64 0, i64 %44
  %46 = getelementptr inbounds [50 x i8], [50 x i8]* %45, i64 0, i64 1
  store i8 %42, i8* %46, align 1
  %47 = load i32, i32* %2, align 4
  %48 = sext i32 %47 to i64
  %49 = getelementptr inbounds [50 x [50 x i8]], [50 x [50 x i8]]* %6, i64 0, i64 %48
  %50 = getelementptr inbounds [50 x i8], [50 x i8]* %49, i64 0, i64 0
  %51 = call i32 @strcmp(i8* %50, i8* getelementptr inbounds ([3 x i8], [3 x i8]* @.str.2, i64 0, i64 0)) #3
  %52 = icmp eq i32 %51, 0
  br i1 %52, label %53, label %73

53:                                               ; preds = %12
  store i32 0, i32* %3, align 4
  br label %54

54:                                               ; preds = %69, %53
  %55 = load i32, i32* %3, align 4
  %56 = load i32, i32* %4, align 4
  %57 = sub nsw i32 %56, 2
  %58 = icmp slt i32 %55, %57
  br i1 %58, label %59, label %72

59:                                               ; preds = %54
  %60 = load i32, i32* %2, align 4
  %61 = sext i32 %60 to i64
  %62 = getelementptr inbounds [50 x [50 x i8]], [50 x [50 x i8]]* %5, i64 0, i64 %61
  %63 = load i32, i32* %3, align 4
  %64 = sext i32 %63 to i64
  %65 = getelementptr inbounds [50 x i8], [50 x i8]* %62, i64 0, i64 %64
  %66 = load i8, i8* %65, align 1
  %67 = sext i8 %66 to i32
  %68 = call i32 (i8*, ...) @printf(i8* getelementptr inbounds ([3 x i8], [3 x i8]* @.str.3, i64 0, i64 0), i32 %67)
  br label %69

69:                                               ; preds = %59
  %70 = load i32, i32* %3, align 4
  %71 = add nsw i32 %70, 1
  store i32 %71, i32* %3, align 4
  br label %54

72:                                               ; preds = %54
  br label %121

73:                                               ; preds = %12
  %74 = load i32, i32* %2, align 4
  %75 = sext i32 %74 to i64
  %76 = getelementptr inbounds [50 x [50 x i8]], [50 x [50 x i8]]* %6, i64 0, i64 %75
  %77 = getelementptr inbounds [50 x i8], [50 x i8]* %76, i64 0, i64 0
  %78 = call i32 @strcmp(i8* %77, i8* getelementptr inbounds ([3 x i8], [3 x i8]* @.str.4, i64 0, i64 0)) #3
  %79 = icmp eq i32 %78, 0
  br i1 %79, label %80, label %100

80:                                               ; preds = %73
  store i32 0, i32* %3, align 4
  br label %81

81:                                               ; preds = %96, %80
  %82 = load i32, i32* %3, align 4
  %83 = load i32, i32* %4, align 4
  %84 = sub nsw i32 %83, 2
  %85 = icmp slt i32 %82, %84
  br i1 %85, label %86, label %99

86:                                               ; preds = %81
  %87 = load i32, i32* %2, align 4
  %88 = sext i32 %87 to i64
  %89 = getelementptr inbounds [50 x [50 x i8]], [50 x [50 x i8]]* %5, i64 0, i64 %88
  %90 = load i32, i32* %3, align 4
  %91 = sext i32 %90 to i64
  %92 = getelementptr inbounds [50 x i8], [50 x i8]* %89, i64 0, i64 %91
  %93 = load i8, i8* %92, align 1
  %94 = sext i8 %93 to i32
  %95 = call i32 (i8*, ...) @printf(i8* getelementptr inbounds ([3 x i8], [3 x i8]* @.str.3, i64 0, i64 0), i32 %94)
  br label %96

96:                                               ; preds = %86
  %97 = load i32, i32* %3, align 4
  %98 = add nsw i32 %97, 1
  store i32 %98, i32* %3, align 4
  br label %81

99:                                               ; preds = %81
  br label %120

100:                                              ; preds = %73
  store i32 0, i32* %3, align 4
  br label %101

101:                                              ; preds = %116, %100
  %102 = load i32, i32* %3, align 4
  %103 = load i32, i32* %4, align 4
  %104 = sub nsw i32 %103, 3
  %105 = icmp slt i32 %102, %104
  br i1 %105, label %106, label %119

106:                                              ; preds = %101
  %107 = load i32, i32* %2, align 4
  %108 = sext i32 %107 to i64
  %109 = getelementptr inbounds [50 x [50 x i8]], [50 x [50 x i8]]* %5, i64 0, i64 %108
  %110 = load i32, i32* %3, align 4
  %111 = sext i32 %110 to i64
  %112 = getelementptr inbounds [50 x i8], [50 x i8]* %109, i64 0, i64 %111
  %113 = load i8, i8* %112, align 1
  %114 = sext i8 %113 to i32
  %115 = call i32 (i8*, ...) @printf(i8* getelementptr inbounds ([3 x i8], [3 x i8]* @.str.3, i64 0, i64 0), i32 %114)
  br label %116

116:                                              ; preds = %106
  %117 = load i32, i32* %3, align 4
  %118 = add nsw i32 %117, 1
  store i32 %118, i32* %3, align 4
  br label %101

119:                                              ; preds = %101
  br label %120

120:                                              ; preds = %119, %99
  br label %121

121:                                              ; preds = %120, %72
  %122 = call i32 (i8*, ...) @printf(i8* getelementptr inbounds ([2 x i8], [2 x i8]* @.str.5, i64 0, i64 0))
  br label %123

123:                                              ; preds = %121
  %124 = load i32, i32* %2, align 4
  %125 = add nsw i32 %124, 1
  store i32 %125, i32* %2, align 4
  br label %8

126:                                              ; preds = %8
  ret void
}

declare dso_local i32 @__isoc99_scanf(i8*, ...) #1

; Function Attrs: nounwind readonly
declare dso_local i64 @strlen(i8*) #2

; Function Attrs: nounwind readonly
declare dso_local i32 @strcmp(i8*, i8*) #2

declare dso_local i32 @printf(i8*, ...) #1


!llvm.module.flags = !{!0}
!llvm.ident = !{!1}

!0 = !{i32 1, !"wchar_size", i32 4}
!1 = !{!"clang version 10.0.0-4ubuntu1 "}
