; ModuleID = 'source-C-CXX/56/137.c'
source_filename = "source-C-CXX/56/137.c"
target datalayout = "e-m:e-p270:32:32-p271:32:32-p272:64:64-i64:64-f80:128-n8:16:32:64-S128"
target triple = "x86_64-pc-linux-gnu"

@.str = private unnamed_addr constant [3 x i8] c"%d\00", align 1
@.str.1 = private unnamed_addr constant [3 x i8] c"%s\00", align 1
@.str.2 = private unnamed_addr constant [3 x i8] c"er\00", align 1
@.str.4 = private unnamed_addr constant [3 x i8] c"ly\00", align 1

; Function Attrs: nofree nounwind sspstrong uwtable
define dso_local void @main() local_unnamed_addr #0 {
  %1 = alloca i32, align 4
  %2 = alloca [50 x [50 x i8]], align 16
  %3 = alloca [50 x [50 x i8]], align 16
  %4 = bitcast i32* %1 to i8*
  call void @llvm.lifetime.start.p0i8(i64 4, i8* nonnull %4) #6
  %5 = getelementptr inbounds [50 x [50 x i8]], [50 x [50 x i8]]* %2, i64 0, i64 0, i64 0
  call void @llvm.lifetime.start.p0i8(i64 2500, i8* nonnull %5) #6
  %6 = getelementptr inbounds [50 x [50 x i8]], [50 x [50 x i8]]* %3, i64 0, i64 0, i64 0
  call void @llvm.lifetime.start.p0i8(i64 2500, i8* nonnull %6) #6
  %7 = call i32 (i8*, ...) @__isoc99_scanf(i8* getelementptr inbounds ([3 x i8], [3 x i8]* @.str, i64 0, i64 0), i32* nonnull %1)
  %8 = load i32, i32* %1, align 4, !tbaa !5
  %9 = icmp sgt i32 %8, 0
  br i1 %9, label %10, label %78

10:                                               ; preds = %0, %72
  %11 = phi i64 [ %74, %72 ], [ 0, %0 ]
  %12 = getelementptr inbounds [50 x [50 x i8]], [50 x [50 x i8]]* %2, i64 0, i64 %11
  %13 = call i32 (i8*, ...) @__isoc99_scanf(i8* getelementptr inbounds ([3 x i8], [3 x i8]* @.str.1, i64 0, i64 0), [50 x i8]* nonnull %12)
  %14 = getelementptr inbounds [50 x i8], [50 x i8]* %12, i64 0, i64 0
  %15 = call i64 @strlen(i8* noundef nonnull %14) #7
  %16 = trunc i64 %15 to i32
  %17 = add i32 %16, -2
  %18 = sext i32 %17 to i64
  %19 = getelementptr inbounds [50 x [50 x i8]], [50 x [50 x i8]]* %2, i64 0, i64 %11, i64 %18
  %20 = load i8, i8* %19, align 1, !tbaa !9
  %21 = getelementptr inbounds [50 x [50 x i8]], [50 x [50 x i8]]* %3, i64 0, i64 %11, i64 0
  store i8 %20, i8* %21, align 2, !tbaa !9
  %22 = shl i64 %15, 32
  %23 = add i64 %22, -4294967296
  %24 = ashr exact i64 %23, 32
  %25 = getelementptr inbounds [50 x [50 x i8]], [50 x [50 x i8]]* %2, i64 0, i64 %11, i64 %24
  %26 = load i8, i8* %25, align 1, !tbaa !9
  %27 = getelementptr inbounds [50 x [50 x i8]], [50 x [50 x i8]]* %3, i64 0, i64 %11, i64 1
  store i8 %26, i8* %27, align 1, !tbaa !9
  %28 = call i32 @strcmp(i8* noundef nonnull %21, i8* noundef nonnull dereferenceable(3) getelementptr inbounds ([3 x i8], [3 x i8]* @.str.2, i64 0, i64 0)) #7
  %29 = icmp eq i32 %28, 0
  br i1 %29, label %30, label %42

30:                                               ; preds = %10
  %31 = icmp sgt i32 %16, 2
  br i1 %31, label %32, label %72

32:                                               ; preds = %30
  %33 = zext i32 %17 to i64
  br label %34

34:                                               ; preds = %32, %34
  %35 = phi i64 [ 0, %32 ], [ %40, %34 ]
  %36 = getelementptr inbounds [50 x [50 x i8]], [50 x [50 x i8]]* %2, i64 0, i64 %11, i64 %35
  %37 = load i8, i8* %36, align 1, !tbaa !9
  %38 = sext i8 %37 to i32
  %39 = call i32 @putchar(i32 %38)
  %40 = add nuw nsw i64 %35, 1
  %41 = icmp eq i64 %40, %33
  br i1 %41, label %72, label %34, !llvm.loop !10

42:                                               ; preds = %10
  %43 = call i32 @strcmp(i8* noundef nonnull %21, i8* noundef nonnull dereferenceable(3) getelementptr inbounds ([3 x i8], [3 x i8]* @.str.4, i64 0, i64 0)) #7
  %44 = icmp eq i32 %43, 0
  br i1 %44, label %52, label %45

45:                                               ; preds = %42
  %46 = icmp sgt i32 %16, 3
  br i1 %46, label %47, label %72

47:                                               ; preds = %45
  %48 = shl i64 %15, 32
  %49 = add i64 %48, -12884901888
  %50 = ashr exact i64 %49, 32
  %51 = call i64 @llvm.smax.i64(i64 %50, i64 1)
  br label %64

52:                                               ; preds = %42
  %53 = icmp sgt i32 %16, 2
  br i1 %53, label %54, label %72

54:                                               ; preds = %52
  %55 = zext i32 %17 to i64
  br label %56

56:                                               ; preds = %54, %56
  %57 = phi i64 [ 0, %54 ], [ %62, %56 ]
  %58 = getelementptr inbounds [50 x [50 x i8]], [50 x [50 x i8]]* %2, i64 0, i64 %11, i64 %57
  %59 = load i8, i8* %58, align 1, !tbaa !9
  %60 = sext i8 %59 to i32
  %61 = call i32 @putchar(i32 %60)
  %62 = add nuw nsw i64 %57, 1
  %63 = icmp eq i64 %62, %55
  br i1 %63, label %72, label %56, !llvm.loop !12

64:                                               ; preds = %47, %64
  %65 = phi i64 [ 0, %47 ], [ %70, %64 ]
  %66 = getelementptr inbounds [50 x [50 x i8]], [50 x [50 x i8]]* %2, i64 0, i64 %11, i64 %65
  %67 = load i8, i8* %66, align 1, !tbaa !9
  %68 = sext i8 %67 to i32
  %69 = call i32 @putchar(i32 %68)
  %70 = add nuw nsw i64 %65, 1
  %71 = icmp eq i64 %70, %51
  br i1 %71, label %72, label %64, !llvm.loop !13

72:                                               ; preds = %64, %56, %34, %45, %52, %30
  %73 = call i32 @putchar(i32 10)
  %74 = add nuw nsw i64 %11, 1
  %75 = load i32, i32* %1, align 4, !tbaa !5
  %76 = sext i32 %75 to i64
  %77 = icmp slt i64 %74, %76
  br i1 %77, label %10, label %78, !llvm.loop !14

78:                                               ; preds = %72, %0
  call void @llvm.lifetime.end.p0i8(i64 2500, i8* nonnull %6) #6
  call void @llvm.lifetime.end.p0i8(i64 2500, i8* nonnull %5) #6
  call void @llvm.lifetime.end.p0i8(i64 4, i8* nonnull %4) #6
  ret void
}

; Function Attrs: argmemonly mustprogress nofree nosync nounwind willreturn
declare void @llvm.lifetime.start.p0i8(i64 immarg, i8* nocapture) #1

; Function Attrs: nofree nounwind
declare noundef i32 @__isoc99_scanf(i8* nocapture noundef readonly, ...) local_unnamed_addr #2

; Function Attrs: argmemonly mustprogress nofree nounwind readonly willreturn
declare i64 @strlen(i8* nocapture) local_unnamed_addr #3

; Function Attrs: argmemonly mustprogress nofree nounwind readonly willreturn
declare i32 @strcmp(i8* nocapture, i8* nocapture) local_unnamed_addr #3

; Function Attrs: argmemonly mustprogress nofree nosync nounwind willreturn
declare void @llvm.lifetime.end.p0i8(i64 immarg, i8* nocapture) #1

; Function Attrs: nofree nounwind
declare noundef i32 @putchar(i32 noundef) local_unnamed_addr #4

; Function Attrs: nofree nosync nounwind readnone speculatable willreturn
declare i64 @llvm.smax.i64(i64, i64) #5


!llvm.module.flags = !{!0, !1, !2, !3}
!llvm.ident = !{!4}

!0 = !{i32 1, !"wchar_size", i32 4}
!1 = !{i32 7, !"PIC Level", i32 2}
!2 = !{i32 7, !"PIE Level", i32 2}
!3 = !{i32 7, !"uwtable", i32 1}
!4 = !{!"clang version 13.0.0"}
!5 = !{!6, !6, i64 0}
!6 = !{!"int", !7, i64 0}
!7 = !{!"omnipotent char", !8, i64 0}
!8 = !{!"Simple C/C++ TBAA"}
!9 = !{!7, !7, i64 0}
!10 = distinct !{!10, !11}
!11 = !{!"llvm.loop.mustprogress"}
!12 = distinct !{!12, !11}
!13 = distinct !{!13, !11}
!14 = distinct !{!14, !11}
